
/home/waleedbinehsan/Desktop/Quasar/verif/sim/hello_world.exe:     file format elf32-littleriscv


Disassembly of section .text:

00000000 <_start>:
   0:	b0201073          	csrw	minstret,zero
   4:	b8201073          	csrw	minstreth,zero
   8:	ee0000b7          	lui	ra,0xee000
   c:	30509073          	csrw	mtvec,ra
  10:	5f5550b7          	lui	ra,0x5f555
  14:	55508093          	addi	ra,ra,1365 # 5f555555 <STACK+0x5f53d4e5>
  18:	7c009073          	csrw	0x7c0,ra
  1c:	d05801b7          	lui	gp,0xd0580
  20:	00010217          	auipc	tp,0x10
  24:	fe020213          	addi	tp,tp,-32 # 10000 <hw_data>

00000028 <loop>:
  28:	00020283          	lb	t0,0(tp) # 0 <_start>
  2c:	00518023          	sb	t0,0(gp) # d0580000 <STACK+0xd0567f90>
  30:	0205                	addi	tp,tp,1
  32:	fe029be3          	bnez	t0,28 <loop>

00000036 <_finish>:
  36:	d05801b7          	lui	gp,0xd0580
  3a:	0ff00293          	li	t0,255
  3e:	00518023          	sb	t0,0(gp) # d0580000 <STACK+0xd0567f90>
  42:	fe000ae3          	beqz	zero,36 <_finish>
  46:	0001                	nop
  48:	0001                	nop
  4a:	0001                	nop
  4c:	0001                	nop
  4e:	0001                	nop
  50:	0001                	nop
  52:	0001                	nop
  54:	0001                	nop
  56:	0001                	nop
  58:	0001                	nop
  5a:	0001                	nop
  5c:	0001                	nop
  5e:	0001                	nop
  60:	0001                	nop
  62:	0001                	nop
  64:	0001                	nop
  66:	0001                	nop
  68:	0001                	nop
  6a:	0001                	nop
  6c:	0001                	nop
  6e:	0001                	nop
  70:	0001                	nop
  72:	0001                	nop
  74:	0001                	nop
  76:	0001                	nop
  78:	0001                	nop
  7a:	0001                	nop
  7c:	0001                	nop
  7e:	0001                	nop
  80:	0001                	nop
  82:	0001                	nop
  84:	0001                	nop
  86:	0001                	nop
  88:	0001                	nop
  8a:	0001                	nop
  8c:	0001                	nop
  8e:	0001                	nop
  90:	0001                	nop
  92:	0001                	nop
  94:	0001                	nop
  96:	0001                	nop
  98:	0001                	nop
  9a:	0001                	nop
  9c:	0001                	nop
  9e:	0001                	nop
  a0:	0001                	nop
  a2:	0001                	nop
  a4:	0001                	nop
  a6:	0001                	nop
  a8:	0001                	nop
  aa:	0001                	nop
  ac:	0001                	nop
  ae:	0001                	nop
  b0:	0001                	nop
  b2:	0001                	nop
  b4:	0001                	nop
  b6:	0001                	nop
  b8:	0001                	nop
  ba:	0001                	nop
  bc:	0001                	nop
  be:	0001                	nop
  c0:	0001                	nop
  c2:	0001                	nop
  c4:	0001                	nop
  c6:	0001                	nop
  c8:	0001                	nop
  ca:	0001                	nop
  cc:	0001                	nop
  ce:	0001                	nop
  d0:	0001                	nop
  d2:	0001                	nop
  d4:	0001                	nop
  d6:	0001                	nop
  d8:	0001                	nop
  da:	0001                	nop
  dc:	0001                	nop
  de:	0001                	nop
  e0:	0001                	nop
  e2:	0001                	nop
  e4:	0001                	nop
  e6:	0001                	nop
  e8:	0001                	nop
  ea:	0001                	nop
  ec:	0001                	nop
  ee:	0001                	nop
  f0:	0001                	nop
  f2:	0001                	nop
  f4:	0001                	nop
  f6:	0001                	nop
  f8:	0001                	nop
  fa:	0001                	nop
  fc:	0001                	nop
  fe:	0001                	nop
 100:	0001                	nop
 102:	0001                	nop
 104:	0001                	nop
 106:	0001                	nop
 108:	0001                	nop
 10a:	0001                	nop
 10c:	0001                	nop
